target datalayout = "e-m:e-p270:32:32-p271:32:32-p272:64:64-i64:64-i128:128-f80:128-n8:16:32:64-S128"
target triple = "x86_64-pc-linux-gnu"

%struct.UriParserStateStructA = type { ptr, i32, ptr, ptr }
%struct.UriUriStructA = type { %struct.UriTextRangeStructA, %struct.UriTextRangeStructA, %struct.UriTextRangeStructA, %struct.UriHostDataStructA, %struct.UriTextRangeStructA, ptr, ptr, %struct.UriTextRangeStructA, %struct.UriTextRangeStructA, i32, i32, ptr }
%struct.UriHostDataStructA = type { ptr, ptr, %struct.UriTextRangeStructA }
%struct.UriTextRangeStructA = type { ptr, ptr }

; Function Attrs: inlinehint nounwind uwtable
define internal void @uriStopSyntaxA(ptr noundef %0, ptr noundef %1, ptr noundef %2) #4 {
  %4 = alloca ptr, align 8
  %5 = alloca ptr, align 8
  %6 = alloca ptr, align 8
  store ptr %0, ptr %4, align 8, !tbaa !3
  store ptr %1, ptr %5, align 8, !tbaa !8
  store ptr %2, ptr %6, align 8, !tbaa !10
  %7 = load ptr, ptr %4, align 8, !tbaa !3
  %8 = getelementptr inbounds nuw %struct.UriParserStateStructA, ptr %7, i32 0, i32 0
  %9 = load ptr, ptr %8, align 8, !tbaa !12
  %10 = load ptr, ptr %6, align 8, !tbaa !10
  %11 = call i32 @uriFreeUriMembersMmA(ptr noundef %9, ptr noundef %10)
  %12 = load ptr, ptr %5, align 8, !tbaa !8
  %13 = load ptr, ptr %4, align 8, !tbaa !3
  %14 = getelementptr inbounds nuw %struct.UriParserStateStructA, ptr %13, i32 0, i32 2
  store ptr %12, ptr %14, align 8, !tbaa !17
  %15 = load ptr, ptr %4, align 8, !tbaa !3
  %16 = getelementptr inbounds nuw %struct.UriParserStateStructA, ptr %15, i32 0, i32 1
  store i32 1, ptr %16, align 8, !tbaa !18
  ret void
}

; Function Attrs: nounwind uwtable
define internal ptr @uriParseOwnUserInfoA(ptr noundef %0, ptr noundef %1, ptr noundef %2, ptr noundef %3) #0 {
  %5 = alloca ptr, align 8
  %6 = alloca ptr, align 8
  %7 = alloca ptr, align 8
  %8 = alloca ptr, align 8
  %9 = alloca ptr, align 8
  %10 = alloca ptr, align 8
  %11 = alloca i32, align 4
  store ptr %0, ptr %6, align 8, !tbaa !3
  store ptr %1, ptr %7, align 8, !tbaa !8
  store ptr %2, ptr %8, align 8, !tbaa !8
  store ptr %3, ptr %9, align 8, !tbaa !10
  %12 = load ptr, ptr %7, align 8, !tbaa !8
  %13 = load ptr, ptr %8, align 8, !tbaa !8
  %14 = icmp uge ptr %12, %13
  br i1 %14, label %15, label %19

15:                                               ; preds = %4
  %16 = load ptr, ptr %6, align 8, !tbaa !3
  %17 = load ptr, ptr %8, align 8, !tbaa !8
  %18 = load ptr, ptr %9, align 8, !tbaa !10
  call void @uriStopSyntaxA(ptr noundef %16, ptr noundef %17, ptr noundef %18)
  store ptr null, ptr %5, align 8
  br label %70

19:                                               ; preds = %4
  %20 = load ptr, ptr %7, align 8, !tbaa !8
  %21 = load i8, ptr %20, align 1, !tbaa !57
  %22 = sext i8 %21 to i32
  switch i32 %22, label %66 [
    i32 33, label %23
    i32 36, label %23
    i32 37, label %23
    i32 38, label %23
    i32 40, label %23
    i32 41, label %23
    i32 45, label %23
    i32 42, label %23
    i32 44, label %23
    i32 46, label %23
    i32 59, label %23
    i32 39, label %23
    i32 95, label %23
    i32 126, label %23
    i32 43, label %23
    i32 61, label %23
    i32 48, label %23
    i32 49, label %23
    i32 50, label %23
    i32 51, label %23
    i32 52, label %23
    i32 53, label %23
    i32 54, label %23
    i32 55, label %23
    i32 56, label %23
    i32 57, label %23
    i32 65, label %23
    i32 66, label %23
    i32 67, label %23
    i32 68, label %23
    i32 69, label %23
    i32 70, label %23
    i32 97, label %23
    i32 98, label %23
    i32 99, label %23
    i32 100, label %23
    i32 101, label %23
    i32 102, label %23
    i32 103, label %23
    i32 71, label %23
    i32 104, label %23
    i32 72, label %23
    i32 105, label %23
    i32 73, label %23
    i32 106, label %23
    i32 74, label %23
    i32 107, label %23
    i32 75, label %23
    i32 108, label %23
    i32 76, label %23
    i32 109, label %23
    i32 77, label %23
    i32 110, label %23
    i32 78, label %23
    i32 111, label %23
    i32 79, label %23
    i32 112, label %23
    i32 80, label %23
    i32 113, label %23
    i32 81, label %23
    i32 114, label %23
    i32 82, label %23
    i32 115, label %23
    i32 83, label %23
    i32 116, label %23
    i32 84, label %23
    i32 117, label %23
    i32 85, label %23
    i32 118, label %23
    i32 86, label %23
    i32 119, label %23
    i32 87, label %23
    i32 120, label %23
    i32 88, label %23
    i32 121, label %23
    i32 89, label %23
    i32 122, label %23
    i32 90, label %23
    i32 58, label %39
    i32 64, label %46
  ]

23:                                               ; preds = %19, %19, %19, %19, %19, %19, %19, %19, %19, %19, %19, %19, %19, %19, %19, %19, %19, %19, %19, %19, %19, %19, %19, %19, %19, %19, %19, %19, %19, %19, %19, %19, %19, %19, %19, %19, %19, %19, %19, %19, %19, %19, %19, %19, %19, %19, %19, %19, %19, %19, %19, %19, %19, %19, %19, %19, %19, %19, %19, %19, %19, %19, %19, %19, %19, %19, %19, %19, %19, %19, %19, %19, %19, %19, %19, %19, %19, %19
  call void @llvm.lifetime.start.p0(i64 8, ptr %10) #7
  %24 = load ptr, ptr %6, align 8, !tbaa !3
  %25 = load ptr, ptr %7, align 8, !tbaa !8
  %26 = load ptr, ptr %8, align 8, !tbaa !8
  %27 = load ptr, ptr %9, align 8, !tbaa !10
  %28 = call ptr @uriParsePctSubUnresA(ptr noundef %24, ptr noundef %25, ptr noundef %26, ptr noundef %27)
  store ptr %28, ptr %10, align 8, !tbaa !8
  %29 = load ptr, ptr %10, align 8, !tbaa !8
  %30 = icmp eq ptr %29, null
  br i1 %30, label %31, label %32

31:                                               ; preds = %23
  store ptr null, ptr %5, align 8
  store i32 1, ptr %11, align 4
  br label %38

32:                                               ; preds = %23
  %33 = load ptr, ptr %6, align 8, !tbaa !3
  %34 = load ptr, ptr %10, align 8, !tbaa !8
  %35 = load ptr, ptr %8, align 8, !tbaa !8
  %36 = load ptr, ptr %9, align 8, !tbaa !10
  %37 = call ptr @uriParseOwnUserInfoA(ptr noundef %33, ptr noundef %34, ptr noundef %35, ptr noundef %36)
  store ptr %37, ptr %5, align 8
  store i32 1, ptr %11, align 4
  br label %38

38:                                               ; preds = %32, %31
  call void @llvm.lifetime.end.p0(i64 8, ptr %10) #7
  br label %70

39:                                               ; preds = %19
  %40 = load ptr, ptr %6, align 8, !tbaa !3
  %41 = load ptr, ptr %7, align 8, !tbaa !8
  %42 = getelementptr inbounds i8, ptr %41, i64 1
  %43 = load ptr, ptr %8, align 8, !tbaa !8
  %44 = load ptr, ptr %9, align 8, !tbaa !10
  %45 = call ptr @uriParseOwnUserInfoA(ptr noundef %40, ptr noundef %42, ptr noundef %43, ptr noundef %44)
  store ptr %45, ptr %5, align 8
  br label %70

46:                                               ; preds = %19
  %47 = load ptr, ptr %7, align 8, !tbaa !8
  %48 = load ptr, ptr %6, align 8, !tbaa !3
  %49 = getelementptr inbounds nuw %struct.UriParserStateStructA, ptr %48, i32 0, i32 0
  %50 = load ptr, ptr %49, align 8, !tbaa !12
  %51 = getelementptr inbounds nuw %struct.UriUriStructA, ptr %50, i32 0, i32 1
  %52 = getelementptr inbounds nuw %struct.UriTextRangeStructA, ptr %51, i32 0, i32 1
  store ptr %47, ptr %52, align 8, !tbaa !34
  %53 = load ptr, ptr %7, align 8, !tbaa !8
  %54 = getelementptr inbounds i8, ptr %53, i64 1
  %55 = load ptr, ptr %6, align 8, !tbaa !3
  %56 = getelementptr inbounds nuw %struct.UriParserStateStructA, ptr %55, i32 0, i32 0
  %57 = load ptr, ptr %56, align 8, !tbaa !12
  %58 = getelementptr inbounds nuw %struct.UriUriStructA, ptr %57, i32 0, i32 2
  %59 = getelementptr inbounds nuw %struct.UriTextRangeStructA, ptr %58, i32 0, i32 0
  store ptr %54, ptr %59, align 8, !tbaa !37
  %60 = load ptr, ptr %6, align 8, !tbaa !3
  %61 = load ptr, ptr %7, align 8, !tbaa !8
  %62 = getelementptr inbounds i8, ptr %61, i64 1
  %63 = load ptr, ptr %8, align 8, !tbaa !8
  %64 = load ptr, ptr %9, align 8, !tbaa !10
  %65 = call ptr @uriParseOwnHostA(ptr noundef %60, ptr noundef %62, ptr noundef %63, ptr noundef %64)
  store ptr %65, ptr %5, align 8
  br label %70

66:                                               ; preds = %19
  %67 = load ptr, ptr %6, align 8, !tbaa !3
  %68 = load ptr, ptr %7, align 8, !tbaa !8
  %69 = load ptr, ptr %9, align 8, !tbaa !10
  call void @uriStopSyntaxA(ptr noundef %67, ptr noundef %68, ptr noundef %69)
  store ptr null, ptr %5, align 8
  br label %70

70:                                               ; preds = %66, %46, %39, %38, %15
  %71 = load ptr, ptr %5, align 8
  ret ptr %71
}