; Function Attrs: nounwind uwtable
define internal fastcc ptr @uriParseOwnUserInfoA(ptr noundef nonnull %0, ptr noundef nonnull %1, ptr noundef nonnull %2, ptr noundef %3) unnamed_addr #0 {
  %.not41 = icmp ult ptr %1, %2
  br i1 %.not41, label %.lr.ph, label %tailrecurse._crit_edge

tailrecurse._crit_edge:                           ; preds = %tailrecurse.backedge, %4
  %5 = load ptr, ptr %0, align 8, !tbaa !3
  %6 = tail call i32 @uriFreeUriMembersMmA(ptr noundef %5, ptr noundef %3)
  %7 = getelementptr inbounds nuw i8, ptr %0, i64 16
  store ptr %2, ptr %7, align 8, !tbaa !28
  %8 = getelementptr inbounds nuw i8, ptr %0, i64 8
  store i32 1, ptr %8, align 8, !tbaa !29
  br label %.loopexit

.lr.ph:                                           ; preds = %4, %tailrecurse.backedge
  %.tr3542 = phi ptr [ %.tr35.be, %tailrecurse.backedge ], [ %1, %4 ]
  %9 = load i8, ptr %.tr3542, align 1, !tbaa !11
  switch i8 %9, label %21 [
    i8 33, label %10
    i8 36, label %10
    i8 37, label %10
    i8 38, label %10
    i8 40, label %10
    i8 41, label %10
    i8 45, label %10
    i8 42, label %10
    i8 44, label %10
    i8 46, label %10
    i8 59, label %10
    i8 39, label %10
    i8 95, label %10
    i8 126, label %10
    i8 43, label %10
    i8 61, label %10
    i8 48, label %10
    i8 49, label %10
    i8 50, label %10
    i8 51, label %10
    i8 52, label %10
    i8 53, label %10
    i8 54, label %10
    i8 55, label %10
    i8 56, label %10
    i8 57, label %10
    i8 65, label %10
    i8 66, label %10
    i8 67, label %10
    i8 68, label %10
    i8 69, label %10
    i8 70, label %10
    i8 97, label %10
    i8 98, label %10
    i8 99, label %10
    i8 100, label %10
    i8 101, label %10
    i8 102, label %10
    i8 103, label %10
    i8 71, label %10
    i8 104, label %10
    i8 72, label %10
    i8 105, label %10
    i8 73, label %10
    i8 106, label %10
    i8 74, label %10
    i8 107, label %10
    i8 75, label %10
    i8 108, label %10
    i8 76, label %10
    i8 109, label %10
    i8 77, label %10
    i8 110, label %10
    i8 78, label %10
    i8 111, label %10
    i8 79, label %10
    i8 112, label %10
    i8 80, label %10
    i8 113, label %10
    i8 81, label %10
    i8 114, label %10
    i8 82, label %10
    i8 115, label %10
    i8 83, label %10
    i8 116, label %10
    i8 84, label %10
    i8 117, label %10
    i8 85, label %10
    i8 118, label %10
    i8 86, label %10
    i8 119, label %10
    i8 87, label %10
    i8 120, label %10
    i8 88, label %10
    i8 121, label %10
    i8 89, label %10
    i8 122, label %10
    i8 90, label %10
    i8 58, label %13
    i8 64, label %15
  ]

10:                                               ; preds = %.lr.ph, %.lr.ph, %.lr.ph, %.lr.ph, %.lr.ph, %.lr.ph, %.lr.ph, %.lr.ph, %.lr.ph, %.lr.ph, %.lr.ph, %.lr.ph, %.lr.ph, %.lr.ph, %.lr.ph, %.lr.ph, %.lr.ph, %.lr.ph, %.lr.ph, %.lr.ph, %.lr.ph, %.lr.ph, %.lr.ph, %.lr.ph, %.lr.ph, %.lr.ph, %.lr.ph, %.lr.ph, %.lr.ph, %.lr.ph, %.lr.ph, %.lr.ph, %.lr.ph, %.lr.ph, %.lr.ph, %.lr.ph, %.lr.ph, %.lr.ph, %.lr.ph, %.lr.ph, %.lr.ph, %.lr.ph, %.lr.ph, %.lr.ph, %.lr.ph, %.lr.ph, %.lr.ph, %.lr.ph, %.lr.ph, %.lr.ph, %.lr.ph, %.lr.ph, %.lr.ph, %.lr.ph, %.lr.ph, %.lr.ph, %.lr.ph, %.lr.ph, %.lr.ph, %.lr.ph, %.lr.ph, %.lr.ph, %.lr.ph, %.lr.ph, %.lr.ph, %.lr.ph, %.lr.ph, %.lr.ph, %.lr.ph, %.lr.ph, %.lr.ph, %.lr.ph, %.lr.ph, %.lr.ph, %.lr.ph, %.lr.ph, %.lr.ph, %.lr.ph
  %11 = tail call fastcc ptr @uriParsePctSubUnresA(ptr noundef %0, ptr noundef %.tr3542, ptr noundef %2, ptr noundef %3)
  %12 = icmp eq ptr %11, null
  br i1 %12, label %.loopexit, label %tailrecurse.backedge

13:                                               ; preds = %.lr.ph
  %14 = getelementptr inbounds nuw i8, ptr %.tr3542, i64 1
  br label %tailrecurse.backedge

tailrecurse.backedge:                             ; preds = %13, %10
  %.tr35.be = phi ptr [ %14, %13 ], [ %11, %10 ]
  %.not = icmp ult ptr %.tr35.be, %2
  br i1 %.not, label %.lr.ph, label %tailrecurse._crit_edge

15:                                               ; preds = %.lr.ph
  %16 = load ptr, ptr %0, align 8, !tbaa !3
  %17 = getelementptr inbounds nuw i8, ptr %16, i64 24
  store ptr %.tr3542, ptr %17, align 8, !tbaa !34
  %18 = getelementptr inbounds nuw i8, ptr %.tr3542, i64 1
  %19 = getelementptr inbounds nuw i8, ptr %16, i64 32
  store ptr %18, ptr %19, align 8, !tbaa !37
  %20 = tail call fastcc ptr @uriParseOwnHostA(ptr noundef %0, ptr noundef %18, ptr noundef %2, ptr noundef %3)
  br label %.loopexit

21:                                               ; preds = %.lr.ph
  %22 = load ptr, ptr %0, align 8, !tbaa !3
  %23 = tail call i32 @uriFreeUriMembersMmA(ptr noundef %22, ptr noundef %3)
  %24 = getelementptr inbounds nuw i8, ptr %0, i64 16
  store ptr %.tr3542, ptr %24, align 8, !tbaa !28
  %25 = getelementptr inbounds nuw i8, ptr %0, i64 8
  store i32 1, ptr %25, align 8, !tbaa !29
  br label %.loopexit

.loopexit:                                        ; preds = %10, %21, %15, %tailrecurse._crit_edge
  %.0 = phi ptr [ null, %tailrecurse._crit_edge ], [ null, %21 ], [ %20, %15 ], [ null, %10 ]
  ret ptr %.0
}